target datalayout = "e-m:e-p270:32:32-p271:32:32-p272:64:64-i64:64-i128:128-f80:128-n8:16:32:64-S128"
target triple = "x86_64-pc-linux-gnu"

%class.svector.42 = type { %class.vector.43 }
%class.vector.43 = type { ptr }
%class.svector.57 = type { %class.vector.58 }
%class.vector.58 = type { ptr }
%"class.datalog::table_signature" = type <{ %"class.datalog::tr_infrastructure<datalog::table_traits>::signature_base", i32, [4 x i8] }>
%"class.datalog::tr_infrastructure<datalog::table_traits>::signature_base" = type { %class.svector.134 }
%class.svector.134 = type { %class.vector.135 }
%class.vector.135 = type { ptr }
%"class.datalog::tr_infrastructure<datalog::table_traits>::base_ancestor" = type <{ ptr, ptr, %"class.datalog::table_signature", i32, [4 x i8] }>
%"class.datalog::tr_infrastructure<datalog::table_traits>::base_fn" = type { ptr }
%"class.datalog::relation_manager::auxiliary_table_filter_fn" = type { ptr, %class.svector.134, %class.svector.134 }
%"class.datalog::relation_manager::default_table_negation_filter_fn" = type { %"class.datalog::tr_infrastructure<datalog::table_traits>::convenient_negation_filter_fn", %"class.datalog::relation_manager::auxiliary_table_filter_fn", ptr, %class.svector.134 }
%"class.datalog::tr_infrastructure<datalog::table_traits>::convenient_negation_filter_fn" = type { %"class.datalog::tr_infrastructure<datalog::table_traits>::intersection_filter_fn", i32, %class.svector.42, %class.svector.42, i8, i8, %class.svector.57 }
%"class.datalog::tr_infrastructure<datalog::table_traits>::intersection_filter_fn" = type { %"class.datalog::tr_infrastructure<datalog::table_traits>::base_fn" }

; Function Attrs: mustprogress nounwind uwtable
define linkonce_odr hidden noundef i32 @_ZNK6vectorImLb0EjE8capacityEv(ptr noundef nonnull align 8 dereferenceable(8) %0) #4 comdat align 2 {
  %2 = alloca i32, align 4
  %3 = alloca ptr, align 8
  store ptr %0, ptr %3, align 8, !tbaa !409
  %4 = load ptr, ptr %3, align 8
  %5 = getelementptr inbounds nuw %class.vector.135, ptr %4, i32 0, i32 0
  %6 = load ptr, ptr %5, align 8, !tbaa !412
  %7 = icmp eq ptr %6, null
  br i1 %7, label %8, label %9

8:                                                ; preds = %1
  store i32 0, ptr %2, align 4
  br label %14

9:                                                ; preds = %1
  %10 = getelementptr inbounds nuw %class.vector.135, ptr %4, i32 0, i32 0
  %11 = load ptr, ptr %10, align 8, !tbaa !412
  %12 = getelementptr inbounds i32, ptr %11, i64 -2
  %13 = load i32, ptr %12, align 4, !tbaa !279
  store i32 %13, ptr %2, align 4
  br label %14

14:                                               ; preds = %9, %8
  %15 = load i32, ptr %2, align 4
  ret i32 %15
}

; Function Attrs: mustprogress nounwind uwtable
define linkonce_odr hidden void @_ZN6vectorImLb0EjE6shrinkEj(ptr noundef nonnull align 8 dereferenceable(8) %0, i32 noundef %1) #4 comdat align 2 {
  %3 = alloca ptr, align 8
  %4 = alloca i32, align 4
  store ptr %0, ptr %3, align 8, !tbaa !409
  store i32 %1, ptr %4, align 4, !tbaa !279
  %5 = load ptr, ptr %3, align 8
  %6 = getelementptr inbounds nuw %class.vector.135, ptr %5, i32 0, i32 0
  %7 = load ptr, ptr %6, align 8, !tbaa !412
  %8 = icmp ne ptr %7, null
  br i1 %8, label %9, label %14

9:                                                ; preds = %2
  %10 = load i32, ptr %4, align 4, !tbaa !279
  %11 = getelementptr inbounds nuw %class.vector.135, ptr %5, i32 0, i32 0
  %12 = load ptr, ptr %11, align 8, !tbaa !412
  %13 = getelementptr inbounds i32, ptr %12, i64 -1
  store i32 %10, ptr %13, align 4, !tbaa !279
  br label %15

14:                                               ; preds = %2
  br label %15

15:                                               ; preds = %14, %9
  ret void
}

; Function Attrs: mustprogress nounwind uwtable
define linkonce_odr hidden void @_ZN6vectorImLb0EjEC2Ev(ptr noundef nonnull align 8 dereferenceable(8) %0) unnamed_addr #4 comdat align 2 {
  %2 = alloca ptr, align 8
  store ptr %0, ptr %2, align 8, !tbaa !409
  %3 = load ptr, ptr %2, align 8
  %4 = getelementptr inbounds nuw %class.vector.135, ptr %3, i32 0, i32 0
  store ptr null, ptr %4, align 8, !tbaa !412
  ret void
}

; Function Attrs: mustprogress uwtable
define linkonce_odr hidden void @_ZN6vectorImLb0EjE6resizeEj(ptr noundef nonnull align 8 dereferenceable(8) %0, i32 noundef %1) #5 comdat align 2 {
  %3 = alloca ptr, align 8
  %4 = alloca i32, align 4
  %5 = alloca i32, align 4
  %6 = alloca i32, align 4
  %7 = alloca ptr, align 8
  %8 = alloca ptr, align 8
  store ptr %0, ptr %3, align 8, !tbaa !409
  store i32 %1, ptr %4, align 4, !tbaa !279
  %9 = load ptr, ptr %3, align 8
  call void @llvm.lifetime.start.p0(i64 4, ptr %5) #3
  %10 = call noundef i32 @_ZNK6vectorImLb0EjE4sizeEv(ptr noundef nonnull align 8 dereferenceable(8) %9)
  store i32 %10, ptr %5, align 4, !tbaa !279
  %11 = load i32, ptr %4, align 4, !tbaa !279
  %12 = load i32, ptr %5, align 4, !tbaa !279
  %13 = icmp ule i32 %11, %12
  br i1 %13, label %14, label %16

14:                                               ; preds = %2
  %15 = load i32, ptr %4, align 4, !tbaa !279
  call void @_ZN6vectorImLb0EjE6shrinkEj(ptr noundef nonnull align 8 dereferenceable(8) %9, i32 noundef %15)
  store i32 1, ptr %6, align 4
  br label %47

16:                                               ; preds = %2
  br label %17

17:                                               ; preds = %21, %16
  %18 = load i32, ptr %4, align 4, !tbaa !279
  %19 = call noundef i32 @_ZNK6vectorImLb0EjE8capacityEv(ptr noundef nonnull align 8 dereferenceable(8) %9)
  %20 = icmp ugt i32 %18, %19
  br i1 %20, label %21, label %22

21:                                               ; preds = %17
  call void @_ZN6vectorImLb0EjE13expand_vectorEv(ptr noundef nonnull align 8 dereferenceable(8) %9)
  br label %17, !llvm.loop !411

22:                                               ; preds = %17
  %23 = load i32, ptr %4, align 4, !tbaa !279
  %24 = getelementptr inbounds nuw %class.vector.135, ptr %9, i32 0, i32 0
  %25 = load ptr, ptr %24, align 8, !tbaa !412
  %26 = getelementptr inbounds i32, ptr %25, i64 -1
  store i32 %23, ptr %26, align 4, !tbaa !279
  call void @llvm.lifetime.start.p0(i64 8, ptr %7) #3
  %27 = getelementptr inbounds nuw %class.vector.135, ptr %9, i32 0, i32 0
  %28 = load ptr, ptr %27, align 8, !tbaa !412
  %29 = load i32, ptr %5, align 4, !tbaa !279
  %30 = zext i32 %29 to i64
  %31 = getelementptr inbounds nuw i64, ptr %28, i64 %30
  store ptr %31, ptr %7, align 8, !tbaa !390
  call void @llvm.lifetime.start.p0(i64 8, ptr %8) #3
  %32 = getelementptr inbounds nuw %class.vector.135, ptr %9, i32 0, i32 0
  %33 = load ptr, ptr %32, align 8, !tbaa !412
  %34 = load i32, ptr %4, align 4, !tbaa !279
  %35 = zext i32 %34 to i64
  %36 = getelementptr inbounds nuw i64, ptr %33, i64 %35
  store ptr %36, ptr %8, align 8, !tbaa !390
  br label %37

37:                                               ; preds = %43, %22
  %38 = load ptr, ptr %7, align 8, !tbaa !390
  %39 = load ptr, ptr %8, align 8, !tbaa !390
  %40 = icmp ne ptr %38, %39
  br i1 %40, label %41, label %46

41:                                               ; preds = %37
  %42 = load ptr, ptr %7, align 8, !tbaa !390
  store i64 0, ptr %42, align 8, !tbaa !392
  br label %43

43:                                               ; preds = %41
  %44 = load ptr, ptr %7, align 8, !tbaa !390
  %45 = getelementptr inbounds nuw i64, ptr %44, i32 1
  store ptr %45, ptr %7, align 8, !tbaa !390
  br label %37, !llvm.loop !413

46:                                               ; preds = %37
  call void @llvm.lifetime.end.p0(i64 8, ptr %8) #3
  call void @llvm.lifetime.end.p0(i64 8, ptr %7) #3
  store i32 0, ptr %6, align 4
  br label %47

47:                                               ; preds = %46, %14
  call void @llvm.lifetime.end.p0(i64 4, ptr %5) #3
  %48 = load i32, ptr %6, align 4
  switch i32 %48, label %50 [
    i32 0, label %49
    i32 1, label %49
  ]

49:                                               ; preds = %47, %47
  ret void

50:                                               ; preds = %47
  unreachable
}

; Function Attrs: mustprogress nounwind uwtable
define linkonce_odr hidden noundef i32 @_ZNK6vectorImLb0EjE4sizeEv(ptr noundef nonnull align 8 dereferenceable(8) %0) #4 comdat align 2 {
  %2 = alloca i32, align 4
  %3 = alloca ptr, align 8
  store ptr %0, ptr %3, align 8, !tbaa !409
  %4 = load ptr, ptr %3, align 8
  %5 = getelementptr inbounds nuw %class.vector.135, ptr %4, i32 0, i32 0
  %6 = load ptr, ptr %5, align 8, !tbaa !412
  %7 = icmp eq ptr %6, null
  br i1 %7, label %8, label %9

8:                                                ; preds = %1
  store i32 0, ptr %2, align 4
  br label %14

9:                                                ; preds = %1
  %10 = getelementptr inbounds nuw %class.vector.135, ptr %4, i32 0, i32 0
  %11 = load ptr, ptr %10, align 8, !tbaa !412
  %12 = getelementptr inbounds i32, ptr %11, i64 -1
  %13 = load i32, ptr %12, align 4, !tbaa !279
  store i32 %13, ptr %2, align 4
  br label %14

14:                                               ; preds = %9, %8
  %15 = load i32, ptr %2, align 4
  ret i32 %15
}

; Function Attrs: mustprogress nounwind uwtable
define linkonce_odr hidden noundef nonnull align 8 dereferenceable(12) ptr @_ZNK7datalog17tr_infrastructureINS_12table_traitsEE13base_ancestor13get_signatureEv(ptr noundef nonnull align 8 dereferenceable(36) %0) #4 comdat align 2 {
  %2 = alloca ptr, align 8
  store ptr %0, ptr %2, align 8, !tbaa !377
  %3 = load ptr, ptr %2, align 8
  %4 = getelementptr inbounds nuw %"class.datalog::tr_infrastructure<datalog::table_traits>::base_ancestor", ptr %3, i32 0, i32 2
  ret ptr %4
}

; Function Attrs: mustprogress nounwind uwtable
define linkonce_odr hidden void @_ZN7svectorImjEC2Ev(ptr noundef nonnull align 8 dereferenceable(8) %0) unnamed_addr #4 comdat align 2 {
  %2 = alloca ptr, align 8
  store ptr %0, ptr %2, align 8, !tbaa !415
  %3 = load ptr, ptr %2, align 8
  call void @_ZN6vectorImLb0EjEC2Ev(ptr noundef nonnull align 8 dereferenceable(8) %3) #3
  ret void
}

; Function Attrs: inlinehint mustprogress nounwind uwtable
define linkonce_odr hidden void @_ZN7datalog16relation_manager25auxiliary_table_filter_fnC2Ev(ptr noundef nonnull align 8 dereferenceable(24) %0) unnamed_addr #7 comdat align 2 {
  %2 = alloca ptr, align 8
  store ptr %0, ptr %2, align 8, !tbaa !742
  %3 = load ptr, ptr %2, align 8
  store ptr getelementptr inbounds inrange(-16, 24) ({ [5 x ptr] }, ptr @_ZTVN7datalog16relation_manager25auxiliary_table_filter_fnE, i32 0, i32 0, i32 2), ptr %3, align 8, !tbaa !8
  %4 = getelementptr inbounds nuw %"class.datalog::relation_manager::auxiliary_table_filter_fn", ptr %3, i32 0, i32 1
  call void @_ZN7svectorImjEC2Ev(ptr noundef nonnull align 8 dereferenceable(8) %4) #3
  %5 = getelementptr inbounds nuw %"class.datalog::relation_manager::auxiliary_table_filter_fn", ptr %3, i32 0, i32 2
  call void @_ZN7svectorImjEC2Ev(ptr noundef nonnull align 8 dereferenceable(8) %5) #3
  ret void
}

; Function Attrs: mustprogress uwtable
define linkonce_odr hidden void @_ZN7datalog16relation_manager32default_table_negation_filter_fnC2ERKNS_10table_baseES4_jPKjS6_(ptr noundef nonnull align 8 dereferenceable(88) %0, ptr noundef nonnull align 8 dereferenceable(36) %1, ptr noundef nonnull align 8 dereferenceable(36) %2, i32 noundef %3, ptr noundef %4, ptr noundef %5) unnamed_addr #5 comdat align 2 personality ptr @__gxx_personality_v0 {
  %7 = alloca ptr, align 8
  %8 = alloca ptr, align 8
  %9 = alloca ptr, align 8
  %10 = alloca i32, align 4
  %11 = alloca ptr, align 8
  %12 = alloca ptr, align 8
  %13 = alloca ptr, align 8
  %14 = alloca i32, align 4
  store ptr %0, ptr %7, align 8, !tbaa !556
  store ptr %1, ptr %8, align 8, !tbaa !375
  store ptr %2, ptr %9, align 8, !tbaa !375
  store i32 %3, ptr %10, align 4, !tbaa !279
  store ptr %4, ptr %11, align 8, !tbaa !286
  store ptr %5, ptr %12, align 8, !tbaa !286
  %15 = load ptr, ptr %7, align 8
  %16 = load ptr, ptr %8, align 8, !tbaa !375
  %17 = load ptr, ptr %9, align 8, !tbaa !375
  %18 = load i32, ptr %10, align 4, !tbaa !279
  %19 = load ptr, ptr %11, align 8, !tbaa !286
  %20 = load ptr, ptr %12, align 8, !tbaa !286
  call void @_ZN7datalog17tr_infrastructureINS_12table_traitsEE29convenient_negation_filter_fnC2ERKNS_10table_baseES6_jPKjS8_(ptr noundef nonnull align 8 dereferenceable(48) %15, ptr noundef nonnull align 8 dereferenceable(36) %16, ptr noundef nonnull align 8 dereferenceable(36) %17, i32 noundef %18, ptr noundef %19, ptr noundef %20)
  %21 = getelementptr inbounds i8, ptr %15, i64 48
  call void @_ZN7datalog16relation_manager25auxiliary_table_filter_fnC2Ev(ptr noundef nonnull align 8 dereferenceable(24) %21) #3
  store ptr getelementptr inbounds inrange(-16, 32) ({ [6 x ptr], [5 x ptr] }, ptr @_ZTVN7datalog16relation_manager32default_table_negation_filter_fnE, i32 0, i32 0, i32 2), ptr %15, align 8, !tbaa !8
  %22 = getelementptr inbounds i8, ptr %15, i64 48
  store ptr getelementptr inbounds inrange(-16, 24) ({ [6 x ptr], [5 x ptr] }, ptr @_ZTVN7datalog16relation_manager32default_table_negation_filter_fnE, i32 0, i32 1, i32 2), ptr %22, align 8, !tbaa !8
  %23 = getelementptr inbounds nuw %"class.datalog::relation_manager::default_table_negation_filter_fn", ptr %15, i32 0, i32 2
  store ptr null, ptr %23, align 8, !tbaa !558
  %24 = getelementptr inbounds nuw %"class.datalog::relation_manager::default_table_negation_filter_fn", ptr %15, i32 0, i32 3
  call void @_ZN7svectorImjEC2Ev(ptr noundef nonnull align 8 dereferenceable(8) %24) #3
  %25 = getelementptr inbounds nuw %"class.datalog::relation_manager::default_table_negation_filter_fn", ptr %15, i32 0, i32 3
  %26 = load ptr, ptr %9, align 8, !tbaa !375
  %27 = invoke noundef nonnull align 8 dereferenceable(12) ptr @_ZNK7datalog17tr_infrastructureINS_12table_traitsEE13base_ancestor13get_signatureEv(ptr noundef nonnull align 8 dereferenceable(36) %26)
          to label %28 unwind label %32

28:                                               ; preds = %6
  %29 = invoke noundef i32 @_ZNK6vectorImLb0EjE4sizeEv(ptr noundef nonnull align 8 dereferenceable(8) %27)
          to label %30 unwind label %32

30:                                               ; preds = %28
  invoke void @_ZN6vectorImLb0EjE6resizeEj(ptr noundef nonnull align 8 dereferenceable(8) %25, i32 noundef %29)
          to label %31 unwind label %32

31:                                               ; preds = %30
  ret void

32:                                               ; preds = %30, %28, %6
  %33 = landingpad { ptr, i32 }
          cleanup
  %34 = extractvalue { ptr, i32 } %33, 0
  store ptr %34, ptr %13, align 8
  %35 = extractvalue { ptr, i32 } %33, 1
  store i32 %35, ptr %14, align 4
  call void @_ZN6vectorImLb0EjED2Ev(ptr noundef nonnull align 8 dereferenceable(8) %24) #3
  %36 = getelementptr inbounds i8, ptr %15, i64 48
  call void @_ZN7datalog16relation_manager25auxiliary_table_filter_fnD2Ev(ptr noundef nonnull align 8 dereferenceable(24) %36) #3
  call void @_ZN7datalog17tr_infrastructureINS_12table_traitsEE29convenient_negation_filter_fnD2Ev(ptr noundef nonnull align 8 dereferenceable(48) %15) #3
  br label %37

37:                                               ; preds = %32
  %38 = load ptr, ptr %13, align 8
  %39 = load i32, ptr %14, align 4
  %40 = insertvalue { ptr, i32 } poison, ptr %38, 0
  %41 = insertvalue { ptr, i32 } %40, i32 %39, 1
  resume { ptr, i32 } %41
}

; Function Attrs: mustprogress nounwind uwtable
define linkonce_odr hidden noundef nonnull align 8 dereferenceable(32) ptr @_ZNK7datalog17tr_infrastructureINS_12table_traitsEE13base_ancestor10get_pluginEv(ptr noundef nonnull align 8 dereferenceable(36) %0) #4 comdat align 2 {
  %2 = alloca ptr, align 8
  store ptr %0, ptr %2, align 8, !tbaa !377
  %3 = load ptr, ptr %2, align 8
  %4 = getelementptr inbounds nuw %"class.datalog::tr_infrastructure<datalog::table_traits>::base_ancestor", ptr %3, i32 0, i32 1
  %5 = load ptr, ptr %4, align 8, !tbaa !379
  ret ptr %5
}

; Function Attrs: mustprogress uwtable
define hidden noundef ptr @_ZN7datalog16relation_manager24mk_filter_by_negation_fnERKNS_10table_baseES3_jPKjS5_(ptr noundef nonnull align 8 dereferenceable(200) %0, ptr noundef nonnull align 8 dereferenceable(36) %1, ptr noundef nonnull align 8 dereferenceable(36) %2, i32 noundef %3, ptr noundef %4, ptr noundef %5) #5 align 2 {
  %7 = alloca ptr, align 8
  %8 = alloca ptr, align 8
  %9 = alloca ptr, align 8
  %10 = alloca i32, align 4
  %11 = alloca ptr, align 8
  %12 = alloca ptr, align 8
  %13 = alloca ptr, align 8
  store ptr %0, ptr %7, align 8, !tbaa !3
  store ptr %1, ptr %8, align 8, !tbaa !375
  store ptr %2, ptr %9, align 8, !tbaa !375
  store i32 %3, ptr %10, align 4, !tbaa !279
  store ptr %4, ptr %11, align 8, !tbaa !286
  store ptr %5, ptr %12, align 8, !tbaa !286
  call void @llvm.lifetime.start.p0(i64 8, ptr %13) #3
  %14 = load ptr, ptr %8, align 8, !tbaa !375
  %15 = call noundef nonnull align 8 dereferenceable(32) ptr @_ZNK7datalog17tr_infrastructureINS_12table_traitsEE13base_ancestor10get_pluginEv(ptr noundef nonnull align 8 dereferenceable(36) %14)
  %16 = load ptr, ptr %8, align 8, !tbaa !375
  %17 = load ptr, ptr %9, align 8, !tbaa !375
  %18 = load i32, ptr %10, align 4, !tbaa !279
  %19 = load ptr, ptr %11, align 8, !tbaa !286
  %20 = load ptr, ptr %12, align 8, !tbaa !286
  %21 = load ptr, ptr %15, align 8, !tbaa !8
  %22 = getelementptr inbounds ptr, ptr %21, i64 23
  %23 = load ptr, ptr %22, align 8
  %24 = call noundef ptr %23(ptr noundef nonnull align 8 dereferenceable(32) %15, ptr noundef nonnull align 8 dereferenceable(36) %16, ptr noundef nonnull align 8 dereferenceable(36) %17, i32 noundef %18, ptr noundef %19, ptr noundef %20)
  store ptr %24, ptr %13, align 8, !tbaa !554
  %25 = load ptr, ptr %13, align 8, !tbaa !554
  %26 = icmp ne ptr %25, null
  br i1 %26, label %45, label %27

27:                                               ; preds = %6
  %28 = load ptr, ptr %8, align 8, !tbaa !375
  %29 = call noundef nonnull align 8 dereferenceable(32) ptr @_ZNK7datalog17tr_infrastructureINS_12table_traitsEE13base_ancestor10get_pluginEv(ptr noundef nonnull align 8 dereferenceable(36) %28)
  %30 = load ptr, ptr %9, align 8, !tbaa !375
  %31 = call noundef nonnull align 8 dereferenceable(32) ptr @_ZNK7datalog17tr_infrastructureINS_12table_traitsEE13base_ancestor10get_pluginEv(ptr noundef nonnull align 8 dereferenceable(36) %30)
  %32 = icmp ne ptr %29, %31
  br i1 %32, label %33, label %45

33:                                               ; preds = %27
  %34 = load ptr, ptr %9, align 8, !tbaa !375
  %35 = call noundef nonnull align 8 dereferenceable(32) ptr @_ZNK7datalog17tr_infrastructureINS_12table_traitsEE13base_ancestor10get_pluginEv(ptr noundef nonnull align 8 dereferenceable(36) %34)
  %36 = load ptr, ptr %8, align 8, !tbaa !375
  %37 = load ptr, ptr %9, align 8, !tbaa !375
  %38 = load i32, ptr %10, align 4, !tbaa !279
  %39 = load ptr, ptr %11, align 8, !tbaa !286
  %40 = load ptr, ptr %12, align 8, !tbaa !286
  %41 = load ptr, ptr %35, align 8, !tbaa !8
  %42 = getelementptr inbounds ptr, ptr %41, i64 23
  %43 = load ptr, ptr %42, align 8
  %44 = call noundef ptr %43(ptr noundef nonnull align 8 dereferenceable(32) %35, ptr noundef nonnull align 8 dereferenceable(36) %36, ptr noundef nonnull align 8 dereferenceable(36) %37, i32 noundef %38, ptr noundef %39, ptr noundef %40)
  store ptr %44, ptr %13, align 8, !tbaa !554
  br label %45

45:                                               ; preds = %33, %27, %6
  %46 = load ptr, ptr %13, align 8, !tbaa !554
  %47 = icmp ne ptr %46, null
  br i1 %47, label %55, label %48

48:                                               ; preds = %45
  %49 = call noalias noundef ptr @_ZN6memory8allocateEm(i64 noundef 88)
  %50 = load ptr, ptr %8, align 8, !tbaa !375
  %51 = load ptr, ptr %9, align 8, !tbaa !375
  %52 = load i32, ptr %10, align 4, !tbaa !279
  %53 = load ptr, ptr %11, align 8, !tbaa !286
  %54 = load ptr, ptr %12, align 8, !tbaa !286
  call void @_ZN7datalog16relation_manager32default_table_negation_filter_fnC2ERKNS_10table_baseES4_jPKjS6_(ptr noundef nonnull align 8 dereferenceable(88) %49, ptr noundef nonnull align 8 dereferenceable(36) %50, ptr noundef nonnull align 8 dereferenceable(36) %51, i32 noundef %52, ptr noundef %53, ptr noundef %54)
  store ptr %49, ptr %13, align 8, !tbaa !554
  br label %55

55:                                               ; preds = %48, %45
  %56 = load ptr, ptr %13, align 8, !tbaa !554
  call void @llvm.lifetime.end.p0(i64 8, ptr %13) #3
  ret ptr %56
}