; Function Attrs: mustprogress uwtable
define hidden noundef ptr @_ZN7datalog16relation_manager24mk_filter_by_negation_fnERKNS_10table_baseES3_jPKjS5_(ptr noundef nonnull readnone align 8 captures(none) dereferenceable(200) %0, ptr noundef nonnull align 8 dereferenceable(36) %1, ptr noundef nonnull align 8 dereferenceable(36) %2, i32 noundef %3, ptr noundef %4, ptr noundef %5) local_unnamed_addr #4 align 2 personality ptr @__gxx_personality_v0 {
  %7 = getelementptr inbounds nuw i8, ptr %1, i64 8
  %8 = load ptr, ptr %7, align 8, !tbaa !382
  %9 = load ptr, ptr %8, align 8, !tbaa !3
  %10 = getelementptr inbounds nuw i8, ptr %9, i64 184
  %11 = load ptr, ptr %10, align 8
  %12 = tail call noundef ptr %11(ptr noundef nonnull align 8 dereferenceable(32) %8, ptr noundef nonnull align 8 dereferenceable(36) %1, ptr noundef nonnull align 8 dereferenceable(36) %2, i32 noundef %3, ptr noundef %4, ptr noundef %5)
  %.not = icmp eq ptr %12, null
  br i1 %.not, label %13, label %_ZN7datalog16relation_manager32default_table_negation_filter_fnC2ERKNS_10table_baseES4_jPKjS6_.exit

13:                                               ; preds = %6
  %14 = load ptr, ptr %7, align 8, !tbaa !382
  %15 = getelementptr inbounds nuw i8, ptr %2, i64 8
  %16 = load ptr, ptr %15, align 8, !tbaa !382
  %.not23 = icmp eq ptr %14, %16
  br i1 %.not23, label %.thread, label %17

17:                                               ; preds = %13
  %18 = load ptr, ptr %16, align 8, !tbaa !3
  %19 = getelementptr inbounds nuw i8, ptr %18, i64 184
  %20 = load ptr, ptr %19, align 8
  %21 = tail call noundef ptr %20(ptr noundef nonnull align 8 dereferenceable(32) %16, ptr noundef nonnull align 8 dereferenceable(36) %1, ptr noundef nonnull align 8 dereferenceable(36) %2, i32 noundef %3, ptr noundef %4, ptr noundef %5)
  %.not24 = icmp eq ptr %21, null
  br i1 %.not24, label %.thread, label %_ZN7datalog16relation_manager32default_table_negation_filter_fnC2ERKNS_10table_baseES4_jPKjS6_.exit

.thread:                                          ; preds = %13, %17
  %22 = tail call noalias noundef ptr @_ZN6memory8allocateEm(i64 noundef 88)
  tail call void @_ZN7datalog17tr_infrastructureINS_12table_traitsEE29convenient_negation_filter_fnC2ERKNS_10table_baseES6_jPKjS8_(ptr noundef nonnull align 8 dereferenceable(88) %22, ptr noundef nonnull align 8 dereferenceable(36) %1, ptr noundef nonnull align 8 dereferenceable(36) %2, i32 noundef %3, ptr noundef %4, ptr noundef %5)
  %23 = getelementptr inbounds nuw i8, ptr %22, i64 48
  %24 = getelementptr inbounds nuw i8, ptr %22, i64 56
  tail call void @llvm.memset.p0.i64(ptr noundef nonnull align 8 dereferenceable(16) %24, i8 0, i64 16, i1 false)
  store ptr getelementptr inbounds nuw inrange(-16, 32) (i8, ptr @_ZTVN7datalog16relation_manager32default_table_negation_filter_fnE, i64 16), ptr %22, align 8, !tbaa !3
  store ptr getelementptr inbounds nuw inrange(-16, 24) (i8, ptr @_ZTVN7datalog16relation_manager32default_table_negation_filter_fnE, i64 64), ptr %23, align 8, !tbaa !3
  %25 = getelementptr inbounds nuw i8, ptr %22, i64 72
  %26 = getelementptr inbounds nuw i8, ptr %22, i64 80
  %27 = getelementptr inbounds nuw i8, ptr %2, i64 16
  tail call void @llvm.memset.p0.i64(ptr noundef nonnull align 8 dereferenceable(16) %25, i8 0, i64 16, i1 false)
  %28 = load ptr, ptr %27, align 8, !tbaa !373
  %29 = icmp eq ptr %28, null
  br i1 %29, label %_ZN7datalog16relation_manager32default_table_negation_filter_fnC2ERKNS_10table_baseES4_jPKjS6_.exit, label %_ZNK6vectorImLb0EjE4sizeEv.exit.i.i

_ZNK6vectorImLb0EjE4sizeEv.exit.i.i:              ; preds = %.thread
  %30 = getelementptr inbounds i8, ptr %28, i64 -4
  %31 = load i32, ptr %30, align 4, !tbaa !34
  %.not.not.i.i = icmp eq i32 %31, 0
  br i1 %.not.not.i.i, label %_ZN7datalog16relation_manager32default_table_negation_filter_fnC2ERKNS_10table_baseES4_jPKjS6_.exit, label %.preheader.i

thread-pre-split.i.i:                             ; preds = %_ZNK6vectorImLb0EjE8capacityEv.exit.thread.i.i
  %.pr.pre.i.i = load ptr, ptr %26, align 8, !tbaa !373
  br label %.preheader.i

.preheader.i:                                     ; preds = %_ZNK6vectorImLb0EjE4sizeEv.exit.i.i, %thread-pre-split.i.i
  %32 = phi ptr [ %.pr.pre.i.i, %thread-pre-split.i.i ], [ null, %_ZNK6vectorImLb0EjE4sizeEv.exit.i.i ]
  %33 = icmp eq ptr %32, null
  br i1 %33, label %_ZNK6vectorImLb0EjE8capacityEv.exit.thread.i.i, label %_ZNK6vectorImLb0EjE8capacityEv.exit.i.i

_ZNK6vectorImLb0EjE8capacityEv.exit.i.i:          ; preds = %.preheader.i
  %34 = getelementptr inbounds i8, ptr %32, i64 -8
  %35 = load i32, ptr %34, align 4, !tbaa !34
  %36 = icmp ugt i32 %31, %35
  br i1 %36, label %_ZNK6vectorImLb0EjE8capacityEv.exit.thread.i.i, label %.lr.ph.preheader.i.i

_ZNK6vectorImLb0EjE8capacityEv.exit.thread.i.i:   ; preds = %_ZNK6vectorImLb0EjE8capacityEv.exit.i.i, %.preheader.i
  invoke void @_ZN6vectorImLb0EjE13expand_vectorEv(ptr noundef nonnull align 8 dereferenceable(8) %26)
          to label %thread-pre-split.i.i unwind label %40

.lr.ph.preheader.i.i:                             ; preds = %_ZNK6vectorImLb0EjE8capacityEv.exit.i.i
  %37 = getelementptr inbounds i8, ptr %32, i64 -4
  store i32 %31, ptr %37, align 4, !tbaa !34
  %38 = zext i32 %31 to i64
  %39 = shl nuw nsw i64 %38, 3
  tail call void @llvm.memset.p0.i64(ptr nonnull align 8 %32, i8 0, i64 %39, i1 false), !tbaa !380
  br label %_ZN7datalog16relation_manager32default_table_negation_filter_fnC2ERKNS_10table_baseES4_jPKjS6_.exit

40:                                               ; preds = %_ZNK6vectorImLb0EjE8capacityEv.exit.thread.i.i
  %41 = landingpad { ptr, i32 }
          cleanup
  tail call void @_ZN6vectorImLb0EjED2Ev(ptr noundef nonnull align 8 dereferenceable(8) %26) #27
  tail call void @_ZN7datalog16relation_manager25auxiliary_table_filter_fnD2Ev(ptr noundef nonnull align 8 dereferenceable(24) %23) #27
  tail call void @_ZN7datalog17tr_infrastructureINS_12table_traitsEE29convenient_negation_filter_fnD2Ev(ptr noundef nonnull align 8 dereferenceable(88) %22) #27
  resume { ptr, i32 } %41

_ZN7datalog16relation_manager32default_table_negation_filter_fnC2ERKNS_10table_baseES4_jPKjS6_.exit: ; preds = %6, %.lr.ph.preheader.i.i, %_ZNK6vectorImLb0EjE4sizeEv.exit.i.i, %.thread, %17
  %.1 = phi ptr [ %21, %17 ], [ %22, %.thread ], [ %22, %_ZNK6vectorImLb0EjE4sizeEv.exit.i.i ], [ %22, %.lr.ph.preheader.i.i ], [ %12, %6 ]
  ret ptr %.1
}